; Function Attrs: mustprogress nounwind uwtable
define hidden noundef zeroext i1 @_ZN31G1PrimaryConcurrentRefineThread16maybe_deactivateEv(ptr noundef nonnull align 8 dereferenceable(1104) %0) unnamed_addr #0 align 2 {
  %2 = getelementptr inbounds i8, ptr %0, i64 1096
  %3 = load ptr, ptr %2, align 8
  %4 = tail call noundef zeroext i1 @_ZNK18G1ConcurrentRefine27is_thread_adjustment_neededEv(ptr noundef nonnull align 8 dereferenceable(136) %3) #9
  br i1 %4, label %_ZN24G1ConcurrentRefineThread16maybe_deactivateEv.exit, label %5

5:                                                ; preds = %1
  %6 = load ptr, ptr %2, align 8
  %7 = getelementptr inbounds i8, ptr %0, i64 1088
  %8 = load i32, ptr %7, align 8
  %9 = tail call noundef zeroext i1 @_ZNK18G1ConcurrentRefine16is_thread_wantedEj(ptr noundef nonnull align 8 dereferenceable(136) %6, i32 noundef %8) #9
  br i1 %9, label %_ZN24G1ConcurrentRefineThread16maybe_deactivateEv.exit, label %_ZN11MutexLockerD2Ev.exit.i

_ZN11MutexLockerD2Ev.exit.i:                      ; preds = %5
  %10 = getelementptr inbounds i8, ptr %0, i64 936
  tail call void @_ZN5Mutex28lock_without_safepoint_checkEv(ptr noundef nonnull align 8 dereferenceable(104) %10) #9
  %11 = getelementptr inbounds i8, ptr %0, i64 1040
  %12 = load i8, ptr %11, align 8
  %13 = trunc i8 %12 to i1
  store i8 0, ptr %11, align 8
  %14 = xor i1 %13, true
  tail call void @_ZN5Mutex6unlockEv(ptr noundef nonnull align 8 dereferenceable(104) %10) #9
  br label %_ZN24G1ConcurrentRefineThread16maybe_deactivateEv.exit

_ZN24G1ConcurrentRefineThread16maybe_deactivateEv.exit: ; preds = %_ZN11MutexLockerD2Ev.exit.i, %5, %1
  %15 = phi i1 [ false, %1 ], [ %14, %_ZN11MutexLockerD2Ev.exit.i ], [ false, %5 ]
  ret i1 %15
}